; Function Attrs: mustprogress uwtable
define noundef zeroext i1 @_ZNK32pxrInternal_v0_24__pxrReserved__14UsdGeomPrimvar10GetIndicesEPNS_7VtArrayIiEENS_11UsdTimeCodeE(ptr noundef nonnull align 8 dereferenceable(44) %0, ptr noundef %1, double %2) local_unnamed_addr #1 align 2 personality ptr @__gxx_personality_v0 {
  %4 = alloca %"class.pxrInternal_v0_24__pxrReserved__::UsdAttribute", align 8
  call void @_ZNK32pxrInternal_v0_24__pxrReserved__14UsdGeomPrimvar15_GetIndicesAttrEb(ptr dead_on_unwind nonnull writable sret(%"class.pxrInternal_v0_24__pxrReserved__::UsdAttribute") align 8 %4, ptr noundef nonnull align 8 dereferenceable(44) %0, i1 noundef zeroext false)
  %5 = load i32, ptr %4, align 8
  switch i32 %5, label %_ZNK32pxrInternal_v0_24__pxrReserved__12UsdAttribute3GetINS_7VtArrayIiEEEEbPT_NS_11UsdTimeCodeE.exit [
    i32 4, label %6
    i32 3, label %6
    i32 1, label %6
  ]

6:                                                ; preds = %3, %3, %3
  %7 = getelementptr inbounds nuw i8, ptr %4, i64 8
  %8 = load ptr, ptr %7, align 8
  %.not.i.i.i = icmp eq ptr %8, null
  br i1 %.not.i.i.i, label %_ZNK32pxrInternal_v0_24__pxrReserved__12UsdAttribute3GetINS_7VtArrayIiEEEEbPT_NS_11UsdTimeCodeE.exit, label %_ZNK32pxrInternal_v0_24__pxrReserved__18Usd_PrimDataHandlecvbEv.exit.i.i

_ZNK32pxrInternal_v0_24__pxrReserved__18Usd_PrimDataHandlecvbEv.exit.i.i: ; preds = %6
  %9 = getelementptr inbounds nuw i8, ptr %8, i64 56
  %10 = load i64, ptr %9, align 8
  %11 = and i64 %10, 2048
  %.not3.i.i.i = icmp eq i64 %11, 0
  br i1 %.not3.i.i.i, label %12, label %_ZNK32pxrInternal_v0_24__pxrReserved__12UsdAttribute3GetINS_7VtArrayIiEEEEbPT_NS_11UsdTimeCodeE.exit

12:                                               ; preds = %_ZNK32pxrInternal_v0_24__pxrReserved__18Usd_PrimDataHandlecvbEv.exit.i.i
  %13 = icmp eq i32 %5, 1
  br i1 %13, label %_ZNK32pxrInternal_v0_24__pxrReserved__9UsdObjectcvbEv.exit.thread8, label %14

14:                                               ; preds = %12
  %15 = invoke noundef i32 @_ZNK32pxrInternal_v0_24__pxrReserved__9UsdObject20_GetDefiningSpecTypeEv(ptr noundef nonnull align 8 dereferenceable(32) %4)
          to label %.noexc unwind label %23

.noexc:                                           ; preds = %14
  %16 = load i32, ptr %4, align 8
  %17 = icmp eq i32 %16, 3
  %18 = icmp eq i32 %15, 1
  %or.cond.i.i = and i1 %18, %17
  br i1 %or.cond.i.i, label %_ZNK32pxrInternal_v0_24__pxrReserved__9UsdObjectcvbEv.exit.thread8, label %_ZNK32pxrInternal_v0_24__pxrReserved__9UsdObjectcvbEv.exit

_ZNK32pxrInternal_v0_24__pxrReserved__9UsdObjectcvbEv.exit: ; preds = %.noexc
  %19 = icmp eq i32 %16, 4
  %20 = icmp eq i32 %15, 8
  %21 = and i1 %20, %19
  br i1 %21, label %_ZNK32pxrInternal_v0_24__pxrReserved__9UsdObjectcvbEv.exit.thread8, label %_ZNK32pxrInternal_v0_24__pxrReserved__12UsdAttribute3GetINS_7VtArrayIiEEEEbPT_NS_11UsdTimeCodeE.exit

_ZNK32pxrInternal_v0_24__pxrReserved__9UsdObjectcvbEv.exit.thread8: ; preds = %.noexc, %12, %_ZNK32pxrInternal_v0_24__pxrReserved__9UsdObjectcvbEv.exit
  %22 = invoke noundef zeroext i1 @_ZNK32pxrInternal_v0_24__pxrReserved__12UsdAttribute4_GetINS_7VtArrayIiEEEEbPT_NS_11UsdTimeCodeE(ptr noundef nonnull align 8 dereferenceable(32) %4, ptr noundef %1, double %2)
          to label %_ZNK32pxrInternal_v0_24__pxrReserved__12UsdAttribute3GetINS_7VtArrayIiEEEEbPT_NS_11UsdTimeCodeE.exit unwind label %23

23:                                               ; preds = %_ZNK32pxrInternal_v0_24__pxrReserved__9UsdObjectcvbEv.exit.thread8, %14
  %24 = landingpad { ptr, i32 }
          cleanup
  call void @_ZN32pxrInternal_v0_24__pxrReserved__12UsdAttributeD2Ev(ptr noundef nonnull align 8 dereferenceable(32) %4) #18
  resume { ptr, i32 } %24

_ZNK32pxrInternal_v0_24__pxrReserved__12UsdAttribute3GetINS_7VtArrayIiEEEEbPT_NS_11UsdTimeCodeE.exit: ; preds = %6, %3, %_ZNK32pxrInternal_v0_24__pxrReserved__18Usd_PrimDataHandlecvbEv.exit.i.i, %_ZNK32pxrInternal_v0_24__pxrReserved__9UsdObjectcvbEv.exit.thread8, %_ZNK32pxrInternal_v0_24__pxrReserved__9UsdObjectcvbEv.exit
  %.0 = phi i1 [ false, %_ZNK32pxrInternal_v0_24__pxrReserved__9UsdObjectcvbEv.exit ], [ %22, %_ZNK32pxrInternal_v0_24__pxrReserved__9UsdObjectcvbEv.exit.thread8 ], [ false, %_ZNK32pxrInternal_v0_24__pxrReserved__18Usd_PrimDataHandlecvbEv.exit.i.i ], [ false, %3 ], [ false, %6 ]
  %25 = getelementptr inbounds nuw i8, ptr %4, i64 24
  %26 = load ptr, ptr %25, align 8
  %27 = ptrtoint ptr %26 to i64
  %28 = and i64 %27, 7
  %.not.i.i.i.i.i = icmp eq i64 %28, 0
  br i1 %.not.i.i.i.i.i, label %_ZN32pxrInternal_v0_24__pxrReserved__7TfTokenD2Ev.exit.i.i.i, label %29

29:                                               ; preds = %_ZNK32pxrInternal_v0_24__pxrReserved__12UsdAttribute3GetINS_7VtArrayIiEEEEbPT_NS_11UsdTimeCodeE.exit
  %30 = and i64 %27, -8
  %31 = inttoptr i64 %30 to ptr
  %32 = atomicrmw sub ptr %31, i32 2 release, align 4
  br label %_ZN32pxrInternal_v0_24__pxrReserved__7TfTokenD2Ev.exit.i.i.i

_ZN32pxrInternal_v0_24__pxrReserved__7TfTokenD2Ev.exit.i.i.i: ; preds = %29, %_ZNK32pxrInternal_v0_24__pxrReserved__12UsdAttribute3GetINS_7VtArrayIiEEEEbPT_NS_11UsdTimeCodeE.exit
  %33 = getelementptr inbounds nuw i8, ptr %4, i64 16
  %34 = load i32, ptr %33, align 8
  %.not.i.i1.i.i.i = icmp eq i32 %34, 0
  br i1 %.not.i.i1.i.i.i, label %_ZN32pxrInternal_v0_24__pxrReserved__7SdfPathD2Ev.exit.i.i.i, label %35

35:                                               ; preds = %_ZN32pxrInternal_v0_24__pxrReserved__7TfTokenD2Ev.exit.i.i.i
  %36 = and i32 %34, 255
  %37 = lshr i32 %34, 8
  %38 = zext nneg i32 %36 to i64
  %39 = getelementptr inbounds [257 x ptr], ptr @_ZN32pxrInternal_v0_24__pxrReserved__8Sdf_PoolINS_15Sdf_PathPrimTagELj24ELj8ELj16384EE13_regionStartsE, i64 0, i64 %38
  %40 = load ptr, ptr %39, align 8
  %41 = mul nuw nsw i32 %37, 24
  %42 = zext nneg i32 %41 to i64
  %43 = getelementptr inbounds i8, ptr %40, i64 %42
  %44 = getelementptr inbounds nuw i8, ptr %43, i64 8
  %45 = atomicrmw sub ptr %44, i32 1 seq_cst, align 4
  %46 = and i32 %45, 2147483647
  %47 = icmp eq i32 %46, 1
  br i1 %47, label %48, label %_ZN32pxrInternal_v0_24__pxrReserved__7SdfPathD2Ev.exit.i.i.i

48:                                               ; preds = %35
  invoke void @_ZNK32pxrInternal_v0_24__pxrReserved__12Sdf_PathNode8_DestroyEv(ptr noundef nonnull align 8 dereferenceable(16) %43)
          to label %_ZN32pxrInternal_v0_24__pxrReserved__7SdfPathD2Ev.exit.i.i.i unwind label %49

49:                                               ; preds = %48
  %50 = landingpad { ptr, i32 }
          catch ptr null
  %51 = extractvalue { ptr, i32 } %50, 0
  call void @__clang_call_terminate(ptr %51) #22
  unreachable

_ZN32pxrInternal_v0_24__pxrReserved__7SdfPathD2Ev.exit.i.i.i: ; preds = %48, %35, %_ZN32pxrInternal_v0_24__pxrReserved__7TfTokenD2Ev.exit.i.i.i
  %52 = getelementptr inbounds nuw i8, ptr %4, i64 8
  %53 = load ptr, ptr %52, align 8
  %.not.i.i.i.i.i.i = icmp eq ptr %53, null
  br i1 %.not.i.i.i.i.i.i, label %_ZN32pxrInternal_v0_24__pxrReserved__12UsdAttributeD2Ev.exit, label %54

54:                                               ; preds = %_ZN32pxrInternal_v0_24__pxrReserved__7SdfPathD2Ev.exit.i.i.i
  %55 = getelementptr inbounds nuw i8, ptr %53, i64 48
  %56 = atomicrmw sub ptr %55, i64 1 release, align 8
  %.not1.i.i.i.i.i.i = icmp eq i64 %56, 1
  br i1 %.not1.i.i.i.i.i.i, label %57, label %_ZN32pxrInternal_v0_24__pxrReserved__12UsdAttributeD2Ev.exit

57:                                               ; preds = %54
  call void @_ZN32pxrInternal_v0_24__pxrReserved__12Usd_PrimDataD1Ev(ptr noundef nonnull align 8 dereferenceable(64) %53) #18
  call void @_ZdlPvm(ptr noundef nonnull %53, i64 noundef 64) #21
  br label %_ZN32pxrInternal_v0_24__pxrReserved__12UsdAttributeD2Ev.exit

_ZN32pxrInternal_v0_24__pxrReserved__12UsdAttributeD2Ev.exit: ; preds = %_ZN32pxrInternal_v0_24__pxrReserved__7SdfPathD2Ev.exit.i.i.i, %54, %57
  ret i1 %.0
}